; Function Attrs: nounwind uwtable
define hidden i32 @RSA_generate_multi_prime_key(ptr noundef %rsa, i32 noundef %bits, i32 noundef %num_primes, ptr noundef %e_value, ptr noundef %cb) local_unnamed_addr #0 {
entry:
  %0 = load ptr, ptr %rsa, align 8
  %multi_prime_keygen = getelementptr inbounds nuw i8, ptr %0, i64 128
  %1 = load ptr, ptr %multi_prime_keygen, align 8
  %tobool.not = icmp eq ptr %1, null
  br i1 %tobool.not, label %if.end, label %if.then

if.then:                                          ; preds = %entry
  %call = tail call i32 %1(ptr noundef nonnull %rsa, i32 noundef %bits, i32 noundef %num_primes, ptr noundef %e_value, ptr noundef %cb) #9
  br label %return

if.end:                                           ; preds = %entry
  %call3 = tail call i32 @rsa_default_multi_prime_keygen(ptr noundef nonnull %rsa, i32 noundef %bits, i32 noundef %num_primes, ptr noundef %e_value, ptr noundef %cb) #9
  br label %return

return:                                           ; preds = %if.end, %if.then
  %retval.0 = phi i32 [ %call, %if.then ], [ %call3, %if.end ]
  ret i32 %retval.0
}